; Function Attrs: mustprogress nounwind willreturn uwtable
define hidden void @ssl_read_buffer_clear(ptr noundef readonly captures(none) %0) local_unnamed_addr #2 {
  %2 = getelementptr inbounds nuw i8, ptr %0, i64 80
  %3 = load ptr, ptr %2, align 8, !tbaa !6
  %4 = getelementptr inbounds nuw i8, ptr %3, i64 88
  %5 = load ptr, ptr %4, align 8, !tbaa !51
  tail call void @free(ptr noundef %5) #9
  tail call void @llvm.memset.p0.i64(ptr noundef nonnull align 8 dereferenceable(16) %4, i8 0, i64 16, i1 false)
  ret void
}